Certificate:
    Data:
        Version: 3 (0x2)
        Serial Number: 22194890954254944 (0x4eda22bf282a60)
    Signature Algorithm: sha256WithRSAEncryption
        Issuer: C=US, ST=Arizona, L=Scottsdale, O=Starfield Technologies, Inc., OU=http://certs.starfieldtech.com/repository/, CN=Starfield Secure Certificate Authority - G2
        Validity
            Not Before: Oct  6 19:37:17 2014 GMT
            Not After : Jun 26 01:32:03 2016 GMT
        Subject: OU=Domain Control Validated, CN=freepetchipregistry.com
        Subject Public Key Info:
            Public Key Algorithm: rsaEncryption
                Public-Key: (2048 bit)
                Modulus:
                    00:af:c3:f4:bf:31:8a:96:1d:97:51:38:39:77:01:
                    cb:41:0d:6e:cb:ec:1b:04:fa:27:26:cb:c6:64:e0:
                    70:25:16:e1:e4:a4:47:93:a0:70:52:ad:cf:28:10:
                    f6:31:f1:92:dd:17:29:6b:30:ff:da:8e:f8:4b:7e:
                    94:33:ca:83:2a:f3:5f:1d:cd:c6:41:69:71:d7:e4:
                    1e:a5:a7:c0:62:98:bd:56:e9:c0:df:ad:45:60:d1:
                    f9:d3:47:b0:9e:90:78:69:99:d9:3a:dd:16:cc:91:
                    c4:07:d1:6d:fa:c6:d1:13:31:32:2b:8f:a4:98:fd:
                    61:8b:e8:78:87:9c:a5:98:bf:8c:c2:0d:0c:61:97:
                    ed:f1:ab:70:4a:84:18:cd:4e:83:67:10:d9:3c:58:
                    a1:87:fa:f7:a3:7d:14:91:88:c9:8f:91:c1:7c:4b:
                    4e:20:20:81:bb:a3:41:40:e3:ce:5c:a0:b2:9e:7a:
                    2a:11:d5:d5:19:3c:b1:5d:29:5c:11:12:4f:78:21:
                    5d:dc:a3:a5:28:01:dd:74:41:89:69:13:9b:6b:7a:
                    9f:9e:ae:7d:5d:99:90:fc:b2:3a:72:ab:aa:48:30:
                    4e:f3:4f:4f:49:32:eb:bf:dd:2d:41:97:ef:15:a2:
                    9e:cc:31:4d:e2:78:27:5e:6f:bd:d9:7e:ae:7b:ef:
                    7c:55
                Exponent: 65537 (0x10001)
        X509v3 extensions:
            X509v3 Basic Constraints: critical
                CA:FALSE
            X509v3 Extended Key Usage: 
                TLS Web Server Authentication, TLS Web Client Authentication
            X509v3 Key Usage: critical
                Digital Signature, Key Encipherment
            X509v3 CRL Distribution Points: 

                Full Name:
                  URI:http://crl.starfieldtech.com/sfig2s1-12.crl

            X509v3 Certificate Policies: 
                Policy: 2.16.840.1.114414.1.7.23.1
                  CPS: http://certificates.starfieldtech.com/repository/

            Authority Information Access: 
                OCSP - URI:http://ocsp.starfieldtech.com/
                CA Issuers - URI:http://certificates.starfieldtech.com/repository/sfig2.crt

            X509v3 Authority Key Identifier: 
                keyid:25:45:81:68:50:26:38:3D:3B:2D:2C:BE:CD:6A:D9:B6:3D:B3:66:63

            X509v3 Subject Alternative Name: 
                DNS:freepetchipregistry.com, DNS:www.freepetchipregistry.com
            X509v3 Subject Key Identifier: 
                6E:1F:BE:D2:F3:71:76:D6:22:CC:A9:43:C9:A0:DD:B3:70:9F:18:E9
    Signature Algorithm: sha256WithRSAEncryption
         06:70:af:05:6f:71:e8:21:94:7a:d2:a3:2b:61:6e:d0:1d:f6:
         f7:e9:8a:ba:24:8d:dd:9e:d1:5d:1f:69:4c:2b:e3:fa:f4:70:
         d2:d8:a6:fc:7e:1b:86:72:20:70:4e:a3:9a:fc:f7:f4:e1:e7:
         c6:59:35:7c:14:f9:bb:6e:fb:37:d3:41:95:25:14:df:e5:1e:
         a5:93:6e:87:b4:db:65:07:23:17:4a:0a:90:fa:b5:09:0f:4c:
         18:63:01:48:9e:f0:6b:0e:2e:16:e8:d8:08:b0:ce:87:0d:a9:
         6f:f6:49:ef:d8:30:e4:b6:71:35:7a:1d:06:39:98:97:65:45:
         43:cb:6e:56:39:8d:94:38:33:84:de:87:5a:91:6a:33:11:d4:
         ac:63:95:62:c2:cd:cf:e1:2c:ea:10:82:ff:3c:e4:d7:67:01:
         9e:7a:6f:45:f7:7d:40:01:ba:71:42:24:60:dc:f3:80:f8:bd:
         eb:81:41:68:ed:9f:46:03:9b:6d:2f:19:2b:2f:85:10:e0:5c:
         4a:c2:bc:1f:c8:61:a4:7d:6c:78:d2:a2:0d:0a:ee:dd:07:1f:
         a0:83:24:fb:84:09:38:cc:3c:f6:b5:68:5f:bc:83:56:42:87:
         6d:d8:30:c4:fa:c8:09:61:2f:27:71:79:c8:83:99:bb:f0:ae:
         5d:d7:b3:04


-----BEGIN CERTIFICATE-----
MIIFbzCCBFegAwIBAgIHTtoivygqYDANBgkqhkiG9w0BAQsFADCBxjELMAkGA1UE
BhMCVVMxEDAOBgNVBAgTB0FyaXpvbmExEzARBgNVBAcTClNjb3R0c2RhbGUxJTAj
BgNVBAoTHFN0YXJmaWVsZCBUZWNobm9sb2dpZXMsIEluYy4xMzAxBgNVBAsTKmh0
dHA6Ly9jZXJ0cy5zdGFyZmllbGR0ZWNoLmNvbS9yZXBvc2l0b3J5LzE0MDIGA1UE
AxMrU3RhcmZpZWxkIFNlY3VyZSBDZXJ0aWZpY2F0ZSBBdXRob3JpdHkgLSBHMjAe
Fw0xNDEwMDYxOTM3MTdaFw0xNjA2MjYwMTMyMDNaMEUxITAfBgNVBAsTGERvbWFp
biBDb250cm9sIFZhbGlkYXRlZDEgMB4GA1UEAxMXZnJlZXBldGNoaXByZWdpc3Ry
eS5jb20wggEiMA0GCSqGSIb3DQEBAQUAA4IBDwAwggEKAoIBAQCvw/S/MYqWHZdR
ODl3ActBDW7L7BsE+icmy8Zk4HAlFuHkpEeToHBSrc8oEPYx8ZLdFylrMP/ajvhL
fpQzyoMq818dzcZBaXHX5B6lp8BimL1W6cDfrUVg0fnTR7CekHhpmdk63RbMkcQH
0W36xtETMTIrj6SY/WGL6HiHnKWYv4zCDQxhl+3xq3BKhBjNToNnENk8WKGH+vej
fRSRiMmPkcF8S04gIIG7o0FA485coLKeeioR1dUZPLFdKVwREk94IV3co6UoAd10
QYlpE5trep+ern1dmZD8sjpyq6pIME7zT09JMuu/3S1Bl+8Vop7MMU3ieCdeb73Z
fq5773xVAgMBAAGjggHgMIIB3DAMBgNVHRMBAf8EAjAAMB0GA1UdJQQWMBQGCCsG
AQUFBwMBBggrBgEFBQcDAjAOBgNVHQ8BAf8EBAMCBaAwPAYDVR0fBDUwMzAxoC+g
LYYraHR0cDovL2NybC5zdGFyZmllbGR0ZWNoLmNvbS9zZmlnMnMxLTEyLmNybDBZ
BgNVHSAEUjBQME4GC2CGSAGG/W4BBxcBMD8wPQYIKwYBBQUHAgEWMWh0dHA6Ly9j
ZXJ0aWZpY2F0ZXMuc3RhcmZpZWxkdGVjaC5jb20vcmVwb3NpdG9yeS8wgYIGCCsG
AQUFBwEBBHYwdDAqBggrBgEFBQcwAYYeaHR0cDovL29jc3Auc3RhcmZpZWxkdGVj
aC5jb20vMEYGCCsGAQUFBzAChjpodHRwOi8vY2VydGlmaWNhdGVzLnN0YXJmaWVs
ZHRlY2guY29tL3JlcG9zaXRvcnkvc2ZpZzIuY3J0MB8GA1UdIwQYMBaAFCVFgWhQ
Jjg9Oy0svs1q2bY9s2ZjMD8GA1UdEQQ4MDaCF2ZyZWVwZXRjaGlwcmVnaXN0cnku
Y29tght3d3cuZnJlZXBldGNoaXByZWdpc3RyeS5jb20wHQYDVR0OBBYEFG4fvtLz
cXbWIsypQ8mg3bNwnxjpMA0GCSqGSIb3DQEBCwUAA4IBAQAGcK8Fb3HoIZR60qMr
YW7QHfb36Yq6JI3dntFdH2lMK+P69HDS2Kb8fhuGciBwTqOa/Pf04efGWTV8FPm7
bvs300GVJRTf5R6lk26HtNtlByMXSgqQ+rUJD0wYYwFInvBrDi4W6NgIsM6HDalv
9knv2DDktnE1eh0GOZiXZUVDy25WOY2UODOE3odakWozEdSsY5Viws3P4SzqEIL/
POTXZwGeem9F931AAbpxQiRg3POA+L3rgUFo7Z9GA5ttLxkrL4UQ4FxKwrwfyGGk
fWx40qINCu7dBx+ggyT7hAk4zDz2tWhfvINWQodt2DDE+sgJYS8ncXnIg5m78K5d
17ME
-----END CERTIFICATE-----
